; Function Attrs: mustprogress uwtable
define void @_ZN8MdiChild7newFileEv(ptr noundef nonnull align 8 dereferenceable(153) %0) local_unnamed_addr #0 align 2 personality ptr @__gxx_personality_v0 {
  %2 = alloca %class.QString, align 16
  %3 = alloca %class.QString, align 8
  %4 = alloca %class.QString, align 8
  %5 = alloca %"class.QMetaObject::Connection", align 8
  %6 = getelementptr inbounds i8, ptr %0, i64 152
  store i8 1, ptr %6, align 8
  call void @_ZNK11QMetaObject2trEPKcS1_i(ptr dead_on_unwind nonnull writable sret(%class.QString) align 8 %3, ptr noundef nonnull align 8 dereferenceable(56) @_ZN8MdiChild16staticMetaObjectE, ptr noundef nonnull @.str, ptr noundef null, i32 noundef -1)
  %7 = load i32, ptr @_ZZN8MdiChild7newFileEvE14sequenceNumber, align 4
  %8 = add nsw i32 %7, 1
  store i32 %8, ptr @_ZZN8MdiChild7newFileEvE14sequenceNumber, align 4
  %9 = sext i32 %7 to i64
  invoke void @_ZNK7QString3argExii5QChar(ptr dead_on_unwind nonnull writable sret(%class.QString) align 8 %2, ptr noundef nonnull align 8 dereferenceable(24) %3, i64 noundef %9, i32 noundef 0, i32 noundef 10, i16 32)
          to label %_ZNK7QString3argEiii5QChar.exit unwind label %33

_ZNK7QString3argEiii5QChar.exit:                  ; preds = %1
  %10 = getelementptr inbounds i8, ptr %0, i64 128
  %11 = load ptr, ptr %10, align 8
  %12 = getelementptr inbounds i8, ptr %0, i64 136
  %13 = getelementptr inbounds i8, ptr %2, i64 8
  %14 = load ptr, ptr %12, align 8
  %15 = load <2 x ptr>, ptr %2, align 16
  store ptr %11, ptr %2, align 16
  store <2 x ptr> %15, ptr %10, align 8
  store ptr %14, ptr %13, align 8
  %16 = getelementptr inbounds i8, ptr %0, i64 144
  %17 = getelementptr inbounds i8, ptr %2, i64 16
  %18 = load i64, ptr %16, align 8
  %19 = load i64, ptr %17, align 16
  store i64 %19, ptr %16, align 8
  store i64 %18, ptr %17, align 16
  %.not.i.i.i = icmp eq ptr %11, null
  br i1 %.not.i.i.i, label %_ZN7QStringD2Ev.exit, label %_ZN17QArrayDataPointerIDsE5derefEv.exit.i.i

_ZN17QArrayDataPointerIDsE5derefEv.exit.i.i:      ; preds = %_ZNK7QString3argEiii5QChar.exit
  %20 = atomicrmw sub ptr %11, i32 1 seq_cst, align 4
  %.not.i.i = icmp eq i32 %20, 1
  br i1 %.not.i.i, label %21, label %_ZN7QStringD2Ev.exit

21:                                               ; preds = %_ZN17QArrayDataPointerIDsE5derefEv.exit.i.i
  %22 = load ptr, ptr %2, align 16
  call void @_ZN10QArrayData10deallocateEPS_xx(ptr noundef %22, i64 noundef 2, i64 noundef 8) #10
  br label %_ZN7QStringD2Ev.exit

_ZN7QStringD2Ev.exit:                             ; preds = %_ZNK7QString3argEiii5QChar.exit, %_ZN17QArrayDataPointerIDsE5derefEv.exit.i.i, %21
  %23 = load ptr, ptr %3, align 8
  %.not.i.i.i4 = icmp eq ptr %23, null
  br i1 %.not.i.i.i4, label %_ZN7QStringD2Ev.exit7, label %_ZN17QArrayDataPointerIDsE5derefEv.exit.i.i5

_ZN17QArrayDataPointerIDsE5derefEv.exit.i.i5:     ; preds = %_ZN7QStringD2Ev.exit
  %24 = atomicrmw sub ptr %23, i32 1 seq_cst, align 4
  %.not.i.i6 = icmp eq i32 %24, 1
  br i1 %.not.i.i6, label %25, label %_ZN7QStringD2Ev.exit7

25:                                               ; preds = %_ZN17QArrayDataPointerIDsE5derefEv.exit.i.i5
  %26 = load ptr, ptr %3, align 8
  call void @_ZN10QArrayData10deallocateEPS_xx(ptr noundef %26, i64 noundef 2, i64 noundef 8) #10
  br label %_ZN7QStringD2Ev.exit7

_ZN7QStringD2Ev.exit7:                            ; preds = %_ZN7QStringD2Ev.exit, %_ZN17QArrayDataPointerIDsE5derefEv.exit.i.i5, %25
  call void @_ZplRK7QStringPKc(ptr dead_on_unwind nonnull writable sret(%class.QString) align 8 %4, ptr noundef nonnull align 8 dereferenceable(24) %10, ptr noundef nonnull @.str.1)
  invoke void @_ZN7QWidget14setWindowTitleERK7QString(ptr noundef nonnull align 8 dereferenceable(40) %0, ptr noundef nonnull align 8 dereferenceable(24) %4)
          to label %27 unwind label %37

27:                                               ; preds = %_ZN7QStringD2Ev.exit7
  %28 = load ptr, ptr %4, align 8
  %.not.i.i.i8 = icmp eq ptr %28, null
  br i1 %.not.i.i.i8, label %_ZN7QStringD2Ev.exit11, label %_ZN17QArrayDataPointerIDsE5derefEv.exit.i.i9

_ZN17QArrayDataPointerIDsE5derefEv.exit.i.i9:     ; preds = %27
  %29 = atomicrmw sub ptr %28, i32 1 seq_cst, align 4
  %.not.i.i10 = icmp eq i32 %29, 1
  br i1 %.not.i.i10, label %30, label %_ZN7QStringD2Ev.exit11

30:                                               ; preds = %_ZN17QArrayDataPointerIDsE5derefEv.exit.i.i9
  %31 = load ptr, ptr %4, align 8
  call void @_ZN10QArrayData10deallocateEPS_xx(ptr noundef %31, i64 noundef 2, i64 noundef 8) #10
  br label %_ZN7QStringD2Ev.exit11

_ZN7QStringD2Ev.exit11:                           ; preds = %27, %_ZN17QArrayDataPointerIDsE5derefEv.exit.i.i9, %30
  %32 = call noundef ptr @_ZNK9QTextEdit8documentEv(ptr noundef nonnull align 8 dereferenceable(40) %0)
  call void @_ZN7QObject7connectEPKS_PKcS1_S3_N2Qt14ConnectionTypeE(ptr dead_on_unwind nonnull writable sret(%"class.QMetaObject::Connection") align 8 %5, ptr noundef %32, ptr noundef nonnull @.str.2, ptr noundef nonnull %0, ptr noundef nonnull @.str.3, i32 noundef 0)
  call void @_ZN11QMetaObject10ConnectionD1Ev(ptr noundef nonnull align 8 dereferenceable(8) %5) #10
  ret void

33:                                               ; preds = %1
  %34 = landingpad { ptr, i32 }
          cleanup
  %35 = load ptr, ptr %3, align 8
  %.not.i.i.i12 = icmp eq ptr %35, null
  br i1 %.not.i.i.i12, label %_ZN7QStringD2Ev.exit15, label %_ZN17QArrayDataPointerIDsE5derefEv.exit.i.i13

_ZN17QArrayDataPointerIDsE5derefEv.exit.i.i13:    ; preds = %33
  %36 = atomicrmw sub ptr %35, i32 1 seq_cst, align 4
  %.not.i.i14 = icmp eq i32 %36, 1
  br i1 %.not.i.i14, label %_ZN7QStringD2Ev.exit15.sink.split, label %_ZN7QStringD2Ev.exit15

37:                                               ; preds = %_ZN7QStringD2Ev.exit7
  %38 = landingpad { ptr, i32 }
          cleanup
  %39 = load ptr, ptr %4, align 8
  %.not.i.i.i16 = icmp eq ptr %39, null
  br i1 %.not.i.i.i16, label %_ZN7QStringD2Ev.exit15, label %_ZN17QArrayDataPointerIDsE5derefEv.exit.i.i17

_ZN17QArrayDataPointerIDsE5derefEv.exit.i.i17:    ; preds = %37
  %40 = atomicrmw sub ptr %39, i32 1 seq_cst, align 4
  %.not.i.i18 = icmp eq i32 %40, 1
  br i1 %.not.i.i18, label %_ZN7QStringD2Ev.exit15.sink.split, label %_ZN7QStringD2Ev.exit15

_ZN7QStringD2Ev.exit15.sink.split:                ; preds = %_ZN17QArrayDataPointerIDsE5derefEv.exit.i.i17, %_ZN17QArrayDataPointerIDsE5derefEv.exit.i.i13
  %.sink.in = phi ptr [ %3, %_ZN17QArrayDataPointerIDsE5derefEv.exit.i.i13 ], [ %4, %_ZN17QArrayDataPointerIDsE5derefEv.exit.i.i17 ]
  %.pn.ph = phi { ptr, i32 } [ %34, %_ZN17QArrayDataPointerIDsE5derefEv.exit.i.i13 ], [ %38, %_ZN17QArrayDataPointerIDsE5derefEv.exit.i.i17 ]
  %.sink = load ptr, ptr %.sink.in, align 8
  call void @_ZN10QArrayData10deallocateEPS_xx(ptr noundef %.sink, i64 noundef 2, i64 noundef 8) #10
  br label %_ZN7QStringD2Ev.exit15

_ZN7QStringD2Ev.exit15:                           ; preds = %_ZN7QStringD2Ev.exit15.sink.split, %_ZN17QArrayDataPointerIDsE5derefEv.exit.i.i17, %37, %_ZN17QArrayDataPointerIDsE5derefEv.exit.i.i13, %33
  %.pn = phi { ptr, i32 } [ %34, %33 ], [ %34, %_ZN17QArrayDataPointerIDsE5derefEv.exit.i.i13 ], [ %38, %37 ], [ %38, %_ZN17QArrayDataPointerIDsE5derefEv.exit.i.i17 ], [ %.pn.ph, %_ZN7QStringD2Ev.exit15.sink.split ]
  resume { ptr, i32 } %.pn
}